; Function Attrs: nounwind uwtable
define hidden void @opj_destroy_cstr_index(ptr noundef captures(none) %0) local_unnamed_addr #2 {
  %2 = load ptr, ptr %0, align 8, !tbaa !52
  %.not = icmp eq ptr %2, null
  br i1 %.not, label %4, label %3

3:                                                ; preds = %1
  tail call void @j2k_destroy_cstr_index(ptr noundef nonnull %2) #8
  store ptr null, ptr %0, align 8, !tbaa !52
  br label %4

4:                                                ; preds = %3, %1
  ret void
}